target datalayout = "e-m:e-p270:32:32-p271:32:32-p272:64:64-i64:64-i128:128-f80:128-n8:16:32:64-S128"
target triple = "x86_64-pc-linux-gnu"

%"struct.duckdb_libpgquery::PGList" = type { i32, i32, ptr, ptr }
%"struct.duckdb_libpgquery::PGListCell" = type { %union.anon, ptr }
%union.anon = type { ptr }

; Function Attrs: inlinehint mustprogress nounwind uwtable
define internal noundef ptr @_ZN17duckdb_libpgqueryL9list_headEPKNS_6PGListE(ptr noundef %0) #3 {
  %2 = alloca ptr, align 8
  store ptr %0, ptr %2, align 8, !tbaa !3
  %3 = load ptr, ptr %2, align 8, !tbaa !3
  %4 = icmp ne ptr %3, null
  br i1 %4, label %5, label %9

5:                                                ; preds = %1
  %6 = load ptr, ptr %2, align 8, !tbaa !3
  %7 = getelementptr inbounds nuw %"struct.duckdb_libpgquery::PGList", ptr %6, i32 0, i32 2
  %8 = load ptr, ptr %7, align 8, !tbaa !21
  br label %10

9:                                                ; preds = %1
  br label %10

10:                                               ; preds = %9, %5
  %11 = phi ptr [ %8, %5 ], [ null, %9 ]
  ret ptr %11
}

; Function Attrs: mustprogress uwtable
define internal void @_ZN17duckdb_libpgqueryL17list_free_privateEPNS_6PGListEb(ptr noundef %0, i1 noundef zeroext %1) #0 {
  %3 = alloca ptr, align 8
  %4 = alloca i8, align 1
  %5 = alloca ptr, align 8
  %6 = alloca ptr, align 8
  store ptr %0, ptr %3, align 8, !tbaa !3
  %7 = zext i1 %1 to i8
  store i8 %7, ptr %4, align 1, !tbaa !26
  call void @llvm.lifetime.start.p0(i64 8, ptr %5) #6
  %8 = load ptr, ptr %3, align 8, !tbaa !3
  %9 = call noundef ptr @_ZN17duckdb_libpgqueryL9list_headEPKNS_6PGListE(ptr noundef %8)
  store ptr %9, ptr %5, align 8, !tbaa !16
  br label %10

10:                                               ; preds = %24, %2
  %11 = load ptr, ptr %5, align 8, !tbaa !16
  %12 = icmp ne ptr %11, null
  br i1 %12, label %13, label %26

13:                                               ; preds = %10
  call void @llvm.lifetime.start.p0(i64 8, ptr %6) #6
  %14 = load ptr, ptr %5, align 8, !tbaa !16
  store ptr %14, ptr %6, align 8, !tbaa !16
  %15 = load ptr, ptr %5, align 8, !tbaa !16
  %16 = getelementptr inbounds nuw %"struct.duckdb_libpgquery::PGListCell", ptr %15, i32 0, i32 1
  %17 = load ptr, ptr %16, align 8, !tbaa !17
  store ptr %17, ptr %5, align 8, !tbaa !16
  %18 = load i8, ptr %4, align 1, !tbaa !26, !range !28, !noundef !29
  %19 = trunc i8 %18 to i1
  br i1 %19, label %20, label %24

20:                                               ; preds = %13
  %21 = load ptr, ptr %6, align 8, !tbaa !16
  %22 = getelementptr inbounds nuw %"struct.duckdb_libpgquery::PGListCell", ptr %21, i32 0, i32 0
  %23 = load ptr, ptr %22, align 8, !tbaa !14
  call void @_ZN17duckdb_libpgquery5pfreeEPv(ptr noundef %23)
  br label %24

24:                                               ; preds = %20, %13
  %25 = load ptr, ptr %6, align 8, !tbaa !16
  call void @_ZN17duckdb_libpgquery5pfreeEPv(ptr noundef %25)
  call void @llvm.lifetime.end.p0(i64 8, ptr %6) #6
  br label %10, !llvm.loop !30

26:                                               ; preds = %10
  %27 = load ptr, ptr %3, align 8, !tbaa !3
  %28 = icmp ne ptr %27, null
  br i1 %28, label %29, label %31

29:                                               ; preds = %26
  %30 = load ptr, ptr %3, align 8, !tbaa !3
  call void @_ZN17duckdb_libpgquery5pfreeEPv(ptr noundef %30)
  br label %31

31:                                               ; preds = %29, %26
  call void @llvm.lifetime.end.p0(i64 8, ptr %5) #6
  ret void
}

; Function Attrs: mustprogress uwtable
define hidden void @_ZN17duckdb_libpgquery9list_freeEPNS_6PGListE(ptr noundef %0) #0 {
  %2 = alloca ptr, align 8
  store ptr %0, ptr %2, align 8, !tbaa !3
  %3 = load ptr, ptr %2, align 8, !tbaa !3
  call void @_ZN17duckdb_libpgqueryL17list_free_privateEPNS_6PGListEb(ptr noundef %3, i1 noundef zeroext false)
  ret void
}

; Function Attrs: mustprogress uwtable
define hidden noundef ptr @_ZN17duckdb_libpgquery16list_delete_cellEPNS_6PGListEPNS_10PGListCellES3_(ptr noundef %0, ptr noundef %1, ptr noundef %2) #0 {
  %4 = alloca ptr, align 8
  %5 = alloca ptr, align 8
  %6 = alloca ptr, align 8
  %7 = alloca ptr, align 8
  store ptr %0, ptr %5, align 8, !tbaa !3
  store ptr %1, ptr %6, align 8, !tbaa !16
  store ptr %2, ptr %7, align 8, !tbaa !16
  %8 = load ptr, ptr %5, align 8, !tbaa !3
  %9 = getelementptr inbounds nuw %"struct.duckdb_libpgquery::PGList", ptr %8, i32 0, i32 1
  %10 = load i32, ptr %9, align 4, !tbaa !20
  %11 = icmp eq i32 %10, 1
  br i1 %11, label %12, label %14

12:                                               ; preds = %3
  %13 = load ptr, ptr %5, align 8, !tbaa !3
  call void @_ZN17duckdb_libpgquery9list_freeEPNS_6PGListE(ptr noundef %13)
  store ptr null, ptr %4, align 8
  br label %46

14:                                               ; preds = %3
  %15 = load ptr, ptr %5, align 8, !tbaa !3
  %16 = getelementptr inbounds nuw %"struct.duckdb_libpgquery::PGList", ptr %15, i32 0, i32 1
  %17 = load i32, ptr %16, align 4, !tbaa !20
  %18 = add nsw i32 %17, -1
  store i32 %18, ptr %16, align 4, !tbaa !20
  %19 = load ptr, ptr %7, align 8, !tbaa !16
  %20 = icmp ne ptr %19, null
  br i1 %20, label %21, label %27

21:                                               ; preds = %14
  %22 = load ptr, ptr %6, align 8, !tbaa !16
  %23 = getelementptr inbounds nuw %"struct.duckdb_libpgquery::PGListCell", ptr %22, i32 0, i32 1
  %24 = load ptr, ptr %23, align 8, !tbaa !17
  %25 = load ptr, ptr %7, align 8, !tbaa !16
  %26 = getelementptr inbounds nuw %"struct.duckdb_libpgquery::PGListCell", ptr %25, i32 0, i32 1
  store ptr %24, ptr %26, align 8, !tbaa !17
  br label %33

27:                                               ; preds = %14
  %28 = load ptr, ptr %6, align 8, !tbaa !16
  %29 = getelementptr inbounds nuw %"struct.duckdb_libpgquery::PGListCell", ptr %28, i32 0, i32 1
  %30 = load ptr, ptr %29, align 8, !tbaa !17
  %31 = load ptr, ptr %5, align 8, !tbaa !3
  %32 = getelementptr inbounds nuw %"struct.duckdb_libpgquery::PGList", ptr %31, i32 0, i32 2
  store ptr %30, ptr %32, align 8, !tbaa !21
  br label %33

33:                                               ; preds = %27, %21
  %34 = load ptr, ptr %5, align 8, !tbaa !3
  %35 = getelementptr inbounds nuw %"struct.duckdb_libpgquery::PGList", ptr %34, i32 0, i32 3
  %36 = load ptr, ptr %35, align 8, !tbaa !9
  %37 = load ptr, ptr %6, align 8, !tbaa !16
  %38 = icmp eq ptr %36, %37
  br i1 %38, label %39, label %43

39:                                               ; preds = %33
  %40 = load ptr, ptr %7, align 8, !tbaa !16
  %41 = load ptr, ptr %5, align 8, !tbaa !3
  %42 = getelementptr inbounds nuw %"struct.duckdb_libpgquery::PGList", ptr %41, i32 0, i32 3
  store ptr %40, ptr %42, align 8, !tbaa !9
  br label %43

43:                                               ; preds = %39, %33
  %44 = load ptr, ptr %6, align 8, !tbaa !16
  call void @_ZN17duckdb_libpgquery5pfreeEPv(ptr noundef %44)
  %45 = load ptr, ptr %5, align 8, !tbaa !3
  store ptr %45, ptr %4, align 8
  br label %46

46:                                               ; preds = %43, %12
  %47 = load ptr, ptr %4, align 8
  ret ptr %47
}