; Function Attrs: mustprogress uwtable
define hidden noundef ptr @_ZN17duckdb_libpgquery16list_delete_cellEPNS_6PGListEPNS_10PGListCellES3_(ptr noundef %0, ptr noundef %1, ptr noundef %2) local_unnamed_addr #0 {
  %4 = getelementptr inbounds nuw i8, ptr %0, i64 4
  %5 = load i32, ptr %4, align 4, !tbaa !13
  %6 = icmp eq i32 %5, 1
  br i1 %6, label %_ZN17duckdb_libpgqueryL9list_headEPKNS_6PGListE.exit.i.i, label %11

_ZN17duckdb_libpgqueryL9list_headEPKNS_6PGListE.exit.i.i: ; preds = %3
  %7 = getelementptr inbounds nuw i8, ptr %0, i64 8
  %8 = load ptr, ptr %7, align 8, !tbaa !14
  %.not10.i.i = icmp eq ptr %8, null
  br i1 %.not10.i.i, label %_ZN17duckdb_libpgquery9list_freeEPNS_6PGListE.exit, label %.lr.ph.i.i

.lr.ph.i.i:                                       ; preds = %_ZN17duckdb_libpgqueryL9list_headEPKNS_6PGListE.exit.i.i, %.lr.ph.i.i
  %.011.i.i = phi ptr [ %10, %.lr.ph.i.i ], [ %8, %_ZN17duckdb_libpgqueryL9list_headEPKNS_6PGListE.exit.i.i ]
  %9 = getelementptr inbounds nuw i8, ptr %.011.i.i, i64 8
  %10 = load ptr, ptr %9, align 8, !tbaa !3
  tail call void @_ZN17duckdb_libpgquery5pfreeEPv(ptr noundef nonnull %.011.i.i)
  %.not.i.i = icmp eq ptr %10, null
  br i1 %.not.i.i, label %_ZN17duckdb_libpgquery9list_freeEPNS_6PGListE.exit, label %.lr.ph.i.i, !llvm.loop !21

11:                                               ; preds = %3
  %12 = add nsw i32 %5, -1
  store i32 %12, ptr %4, align 4, !tbaa !13
  %.not = icmp eq ptr %2, null
  %13 = getelementptr inbounds nuw i8, ptr %1, i64 8
  %14 = load ptr, ptr %13, align 8, !tbaa !3
  %. = select i1 %.not, ptr %0, ptr %2
  %15 = getelementptr inbounds nuw i8, ptr %., i64 8
  store ptr %14, ptr %15, align 8, !tbaa !17
  %16 = getelementptr inbounds nuw i8, ptr %0, i64 16
  %17 = load ptr, ptr %16, align 8, !tbaa !15
  %18 = icmp eq ptr %17, %1
  br i1 %18, label %19, label %_ZN17duckdb_libpgquery9list_freeEPNS_6PGListE.exit

19:                                               ; preds = %11
  store ptr %2, ptr %16, align 8, !tbaa !15
  br label %_ZN17duckdb_libpgquery9list_freeEPNS_6PGListE.exit

_ZN17duckdb_libpgquery9list_freeEPNS_6PGListE.exit: ; preds = %.lr.ph.i.i, %11, %19, %_ZN17duckdb_libpgqueryL9list_headEPKNS_6PGListE.exit.i.i
  %.sink = phi ptr [ %0, %_ZN17duckdb_libpgqueryL9list_headEPKNS_6PGListE.exit.i.i ], [ %1, %19 ], [ %1, %11 ], [ %0, %.lr.ph.i.i ]
  %.0 = phi ptr [ null, %_ZN17duckdb_libpgqueryL9list_headEPKNS_6PGListE.exit.i.i ], [ %0, %19 ], [ %0, %11 ], [ null, %.lr.ph.i.i ]
  tail call void @_ZN17duckdb_libpgquery5pfreeEPv(ptr noundef nonnull %.sink)
  ret ptr %.0
}